; Function Attrs: mustprogress uwtable
define void @_ZN6casadi16DeserializerBase22blind_unpack_mx_vectorEv(ptr dead_on_unwind noalias writable sret(%"class.std::vector.44") align 8 %0, ptr nocapture noundef nonnull readonly align 8 dereferenceable(16) %1) local_unnamed_addr #3 align 2 personality ptr @__gxx_personality_v0 {
  %3 = alloca %"class.casadi::Function", align 8
  call void @_ZN6casadi8FunctionC1Ev(ptr noundef nonnull align 8 dereferenceable(8) %3)
  %4 = invoke noundef nonnull align 8 dereferenceable(41) ptr @_ZN6casadi16DeserializerBase12deserializerEv(ptr noundef nonnull align 8 dereferenceable(16) %1)
          to label %5 unwind label %9

5:                                                ; preds = %2
  invoke void @_ZN6casadi19DeserializingStream6unpackERNS_8FunctionE(ptr noundef nonnull align 8 dereferenceable(41) %4, ptr noundef nonnull align 8 dereferenceable(8) %3)
          to label %6 unwind label %9

6:                                                ; preds = %5
  call void @llvm.memset.p0.i64(ptr noundef nonnull align 8 dereferenceable(24) %0, i8 0, i64 24, i1 false)
  %7 = invoke noundef nonnull align 8 dereferenceable(41) ptr @_ZN6casadi16DeserializerBase12deserializerEv(ptr noundef nonnull align 8 dereferenceable(16) %1)
          to label %8 unwind label %11

8:                                                ; preds = %6
  invoke void @_ZN6casadi19DeserializingStream6unpackINS_2MXEEEvRSt6vectorIT_SaIS4_EE(ptr noundef nonnull align 8 dereferenceable(41) %7, ptr noundef nonnull align 8 dereferenceable(24) %0)
          to label %13 unwind label %11

9:                                                ; preds = %5, %2
  %10 = landingpad { ptr, i32 }
          cleanup
  br label %14

11:                                               ; preds = %8, %6
  %12 = landingpad { ptr, i32 }
          cleanup
  call void @_ZNSt6vectorIN6casadi2MXESaIS1_EED2Ev(ptr noundef nonnull align 8 dereferenceable(24) %0) #21
  br label %14

13:                                               ; preds = %8
  call void @_ZN6casadi8FunctionD1Ev(ptr noundef nonnull align 8 dereferenceable(8) %3) #21
  ret void

14:                                               ; preds = %11, %9
  %.pn = phi { ptr, i32 } [ %12, %11 ], [ %10, %9 ]
  call void @_ZN6casadi8FunctionD1Ev(ptr noundef nonnull align 8 dereferenceable(8) %3) #21
  resume { ptr, i32 } %.pn
}